ccopy_reg
_reconstructor
p0
(csklearn.linear_model.base
LinearRegression
p1
c__builtin__
object
p2
Ntp3
Rp4
(dp5
S'normalize'
p6
I00
sS'n_jobs'
p7
I1
sS'rank_'
p8
I4
sS'fit_intercept'
p9
I01
sS'_residues'
p10
cnumpy.core.multiarray
scalar
p11
(cnumpy
dtype
p12
(S'f8'
p13
I0
I1
tp14
Rp15
(I3
S'<'
p16
NNNI-1
I-1
I0
tp17
bS'"\xa7\xdd\xabueEA'
p18
tp19
Rp20
sS'coef_'
p21
cnumpy.core.multiarray
_reconstruct
p22
(cnumpy
ndarray
p23
(I0
tp24
S'b'
p25
tp26
Rp27
(I1
(I4
tp28
g15
I00
S'\x15\xdb!b\x82\xd9e@ [\xf3\x84G\x85\x02\xc0\xc0y\x07T\x93G\xf6\xbf \xfeD\x8aM\x1e\x0f\xc0'
p29
tp30
bsS'copy_X'
p31
I01
sS'intercept_'
p32
g11
(g15
S'\x0b\xfd\x05\xf6\xfezu@'
p33
tp34
Rp35
sS'singular_'
p36
g22
(g23
(I0
tp37
g25
tp38
Rp39
(I1
(I4
tp40
g15
I00
S'\x84\x88\xad\xb1t\xe5P@\x06C\xb4\xb5\xc7AL@\x01\x91\r/\xa6G@@-\x83\x06\xba\xb3\x875@'
p41
tp42
bsb.